target datalayout = "e-m:e-p270:32:32-p271:32:32-p272:64:64-i64:64-i128:128-f80:128-n8:16:32:64-S128"
target triple = "x86_64-pc-linux-gnu"

%struct.H5O_shared_t = type { i32, ptr, i32, %union.anon }
%union.anon = type { %struct.H5O_mesg_loc_t }
%struct.H5O_mesg_loc_t = type { i32, i64 }
%struct.H5O_fill_t = type { %struct.H5O_shared_t, i32, ptr, i64, ptr, i32, i32, i8 }

@H5E_OHDR_g = external global i64, align 8
@.str.10 = private unnamed_addr constant [103 x i8] c"generated/home/dtcxzyw/WorkSpace/Projects/compilers/llvm-opt-benchmark/bench/hdf5/hdf5/src/H5Oshared.h\00", align 1
@H5E_CANTENCODE_g = external global i64, align 8
@.str.19 = private unnamed_addr constant [32 x i8] c"unable to encode shared message\00", align 1
@.str.20 = private unnamed_addr constant [32 x i8] c"unable to encode native message\00", align 1
@__func__.H5O__fill_new_shared_encode = private unnamed_addr constant [28 x i8] c"H5O__fill_new_shared_encode\00", align 1

; Function Attrs: nounwind uwtable
define internal i32 @H5O__fill_new_encode(ptr noundef %0, ptr noundef %1, ptr noundef %2) #0 {
  %4 = alloca ptr, align 8
  %5 = alloca ptr, align 8
  %6 = alloca ptr, align 8
  %7 = alloca ptr, align 8
  %8 = alloca i8, align 1
  store ptr %0, ptr %4, align 8
  store ptr %1, ptr %5, align 8
  store ptr %2, ptr %6, align 8
  %9 = load ptr, ptr %6, align 8
  store ptr %9, ptr %7, align 8
  %10 = load ptr, ptr %7, align 8
  %11 = getelementptr inbounds %struct.H5O_fill_t, ptr %10, i32 0, i32 1
  %12 = load i32, ptr %11, align 8
  %13 = trunc i32 %12 to i8
  %14 = load ptr, ptr %5, align 8
  %15 = getelementptr inbounds i8, ptr %14, i32 1
  store ptr %15, ptr %5, align 8
  store i8 %13, ptr %14, align 1
  %16 = load ptr, ptr %7, align 8
  %17 = getelementptr inbounds %struct.H5O_fill_t, ptr %16, i32 0, i32 1
  %18 = load i32, ptr %17, align 8
  %19 = icmp ult i32 %18, 3
  br i1 %19, label %20, label %102

20:                                               ; preds = %3
  %21 = load ptr, ptr %7, align 8
  %22 = getelementptr inbounds %struct.H5O_fill_t, ptr %21, i32 0, i32 5
  %23 = load i32, ptr %22, align 8
  %24 = trunc i32 %23 to i8
  %25 = load ptr, ptr %5, align 8
  %26 = getelementptr inbounds i8, ptr %25, i32 1
  store ptr %26, ptr %5, align 8
  store i8 %24, ptr %25, align 1
  %27 = load ptr, ptr %7, align 8
  %28 = getelementptr inbounds %struct.H5O_fill_t, ptr %27, i32 0, i32 6
  %29 = load i32, ptr %28, align 4
  %30 = trunc i32 %29 to i8
  %31 = load ptr, ptr %5, align 8
  %32 = getelementptr inbounds i8, ptr %31, i32 1
  store ptr %32, ptr %5, align 8
  store i8 %30, ptr %31, align 1
  %33 = load ptr, ptr %7, align 8
  %34 = getelementptr inbounds %struct.H5O_fill_t, ptr %33, i32 0, i32 7
  %35 = load i8, ptr %34, align 8
  %36 = trunc i8 %35 to i1
  %37 = zext i1 %36 to i8
  %38 = load ptr, ptr %5, align 8
  %39 = getelementptr inbounds i8, ptr %38, i32 1
  store ptr %39, ptr %5, align 8
  store i8 %37, ptr %38, align 1
  %40 = load ptr, ptr %7, align 8
  %41 = getelementptr inbounds %struct.H5O_fill_t, ptr %40, i32 0, i32 7
  %42 = load i8, ptr %41, align 8
  %43 = trunc i8 %42 to i1
  br i1 %43, label %44, label %101

44:                                               ; preds = %20
  br label %45

45:                                               ; preds = %44
  %46 = load ptr, ptr %7, align 8
  %47 = getelementptr inbounds %struct.H5O_fill_t, ptr %46, i32 0, i32 3
  %48 = load i64, ptr %47, align 8
  %49 = and i64 %48, 255
  %50 = trunc i64 %49 to i8
  %51 = load ptr, ptr %5, align 8
  store i8 %50, ptr %51, align 1
  %52 = load ptr, ptr %5, align 8
  %53 = getelementptr inbounds i8, ptr %52, i32 1
  store ptr %53, ptr %5, align 8
  %54 = load ptr, ptr %7, align 8
  %55 = getelementptr inbounds %struct.H5O_fill_t, ptr %54, i32 0, i32 3
  %56 = load i64, ptr %55, align 8
  %57 = ashr i64 %56, 8
  %58 = and i64 %57, 255
  %59 = trunc i64 %58 to i8
  %60 = load ptr, ptr %5, align 8
  store i8 %59, ptr %60, align 1
  %61 = load ptr, ptr %5, align 8
  %62 = getelementptr inbounds i8, ptr %61, i32 1
  store ptr %62, ptr %5, align 8
  %63 = load ptr, ptr %7, align 8
  %64 = getelementptr inbounds %struct.H5O_fill_t, ptr %63, i32 0, i32 3
  %65 = load i64, ptr %64, align 8
  %66 = ashr i64 %65, 16
  %67 = and i64 %66, 255
  %68 = trunc i64 %67 to i8
  %69 = load ptr, ptr %5, align 8
  store i8 %68, ptr %69, align 1
  %70 = load ptr, ptr %5, align 8
  %71 = getelementptr inbounds i8, ptr %70, i32 1
  store ptr %71, ptr %5, align 8
  %72 = load ptr, ptr %7, align 8
  %73 = getelementptr inbounds %struct.H5O_fill_t, ptr %72, i32 0, i32 3
  %74 = load i64, ptr %73, align 8
  %75 = ashr i64 %74, 24
  %76 = and i64 %75, 255
  %77 = trunc i64 %76 to i8
  %78 = load ptr, ptr %5, align 8
  store i8 %77, ptr %78, align 1
  %79 = load ptr, ptr %5, align 8
  %80 = getelementptr inbounds i8, ptr %79, i32 1
  store ptr %80, ptr %5, align 8
  br label %81

81:                                               ; preds = %45
  %82 = load ptr, ptr %7, align 8
  %83 = getelementptr inbounds %struct.H5O_fill_t, ptr %82, i32 0, i32 3
  %84 = load i64, ptr %83, align 8
  %85 = icmp sgt i64 %84, 0
  br i1 %85, label %86, label %100

86:                                               ; preds = %81
  %87 = load ptr, ptr %7, align 8
  %88 = getelementptr inbounds %struct.H5O_fill_t, ptr %87, i32 0, i32 4
  %89 = load ptr, ptr %88, align 8
  %90 = icmp ne ptr %89, null
  br i1 %90, label %91, label %99

91:                                               ; preds = %86
  %92 = load ptr, ptr %5, align 8
  %93 = load ptr, ptr %7, align 8
  %94 = getelementptr inbounds %struct.H5O_fill_t, ptr %93, i32 0, i32 4
  %95 = load ptr, ptr %94, align 8
  %96 = load ptr, ptr %7, align 8
  %97 = getelementptr inbounds %struct.H5O_fill_t, ptr %96, i32 0, i32 3
  %98 = load i64, ptr %97, align 8
  call void @llvm.memcpy.p0.p0.i64(ptr align 1 %92, ptr align 1 %95, i64 %98, i1 false)
  br label %99

99:                                               ; preds = %91, %86
  br label %100

100:                                              ; preds = %99, %81
  br label %101

101:                                              ; preds = %100, %20
  br label %200

102:                                              ; preds = %3
  store i8 0, ptr %8, align 1
  %103 = load i8, ptr %8, align 1
  %104 = zext i8 %103 to i32
  %105 = load ptr, ptr %7, align 8
  %106 = getelementptr inbounds %struct.H5O_fill_t, ptr %105, i32 0, i32 5
  %107 = load i32, ptr %106, align 8
  %108 = and i32 3, %107
  %109 = shl i32 %108, 0
  %110 = or i32 %104, %109
  %111 = trunc i32 %110 to i8
  store i8 %111, ptr %8, align 1
  %112 = load i8, ptr %8, align 1
  %113 = zext i8 %112 to i32
  %114 = load ptr, ptr %7, align 8
  %115 = getelementptr inbounds %struct.H5O_fill_t, ptr %114, i32 0, i32 6
  %116 = load i32, ptr %115, align 4
  %117 = and i32 3, %116
  %118 = shl i32 %117, 2
  %119 = or i32 %113, %118
  %120 = trunc i32 %119 to i8
  store i8 %120, ptr %8, align 1
  %121 = load ptr, ptr %7, align 8
  %122 = getelementptr inbounds %struct.H5O_fill_t, ptr %121, i32 0, i32 3
  %123 = load i64, ptr %122, align 8
  %124 = icmp slt i64 %123, 0
  br i1 %124, label %125, label %133

125:                                              ; preds = %102
  %126 = load i8, ptr %8, align 1
  %127 = zext i8 %126 to i32
  %128 = or i32 %127, 16
  %129 = trunc i32 %128 to i8
  store i8 %129, ptr %8, align 1
  %130 = load i8, ptr %8, align 1
  %131 = load ptr, ptr %5, align 8
  %132 = getelementptr inbounds i8, ptr %131, i32 1
  store ptr %132, ptr %5, align 8
  store i8 %130, ptr %131, align 1
  br label %199

133:                                              ; preds = %102
  %134 = load ptr, ptr %7, align 8
  %135 = getelementptr inbounds %struct.H5O_fill_t, ptr %134, i32 0, i32 3
  %136 = load i64, ptr %135, align 8
  %137 = icmp sgt i64 %136, 0
  br i1 %137, label %138, label %194

138:                                              ; preds = %133
  %139 = load i8, ptr %8, align 1
  %140 = zext i8 %139 to i32
  %141 = or i32 %140, 32
  %142 = trunc i32 %141 to i8
  store i8 %142, ptr %8, align 1
  %143 = load i8, ptr %8, align 1
  %144 = load ptr, ptr %5, align 8
  %145 = getelementptr inbounds i8, ptr %144, i32 1
  store ptr %145, ptr %5, align 8
  store i8 %143, ptr %144, align 1
  br label %146

146:                                              ; preds = %138
  %147 = load ptr, ptr %7, align 8
  %148 = getelementptr inbounds %struct.H5O_fill_t, ptr %147, i32 0, i32 3
  %149 = load i64, ptr %148, align 8
  %150 = trunc i64 %149 to i32
  %151 = and i32 %150, 255
  %152 = trunc i32 %151 to i8
  %153 = load ptr, ptr %5, align 8
  store i8 %152, ptr %153, align 1
  %154 = load ptr, ptr %5, align 8
  %155 = getelementptr inbounds i8, ptr %154, i32 1
  store ptr %155, ptr %5, align 8
  %156 = load ptr, ptr %7, align 8
  %157 = getelementptr inbounds %struct.H5O_fill_t, ptr %156, i32 0, i32 3
  %158 = load i64, ptr %157, align 8
  %159 = trunc i64 %158 to i32
  %160 = lshr i32 %159, 8
  %161 = and i32 %160, 255
  %162 = trunc i32 %161 to i8
  %163 = load ptr, ptr %5, align 8
  store i8 %162, ptr %163, align 1
  %164 = load ptr, ptr %5, align 8
  %165 = getelementptr inbounds i8, ptr %164, i32 1
  store ptr %165, ptr %5, align 8
  %166 = load ptr, ptr %7, align 8
  %167 = getelementptr inbounds %struct.H5O_fill_t, ptr %166, i32 0, i32 3
  %168 = load i64, ptr %167, align 8
  %169 = trunc i64 %168 to i32
  %170 = lshr i32 %169, 16
  %171 = and i32 %170, 255
  %172 = trunc i32 %171 to i8
  %173 = load ptr, ptr %5, align 8
  store i8 %172, ptr %173, align 1
  %174 = load ptr, ptr %5, align 8
  %175 = getelementptr inbounds i8, ptr %174, i32 1
  store ptr %175, ptr %5, align 8
  %176 = load ptr, ptr %7, align 8
  %177 = getelementptr inbounds %struct.H5O_fill_t, ptr %176, i32 0, i32 3
  %178 = load i64, ptr %177, align 8
  %179 = trunc i64 %178 to i32
  %180 = lshr i32 %179, 24
  %181 = and i32 %180, 255
  %182 = trunc i32 %181 to i8
  %183 = load ptr, ptr %5, align 8
  store i8 %182, ptr %183, align 1
  %184 = load ptr, ptr %5, align 8
  %185 = getelementptr inbounds i8, ptr %184, i32 1
  store ptr %185, ptr %5, align 8
  br label %186

186:                                              ; preds = %146
  %187 = load ptr, ptr %5, align 8
  %188 = load ptr, ptr %7, align 8
  %189 = getelementptr inbounds %struct.H5O_fill_t, ptr %188, i32 0, i32 4
  %190 = load ptr, ptr %189, align 8
  %191 = load ptr, ptr %7, align 8
  %192 = getelementptr inbounds %struct.H5O_fill_t, ptr %191, i32 0, i32 3
  %193 = load i64, ptr %192, align 8
  call void @llvm.memcpy.p0.p0.i64(ptr align 1 %187, ptr align 1 %190, i64 %193, i1 false)
  br label %198

194:                                              ; preds = %133
  %195 = load i8, ptr %8, align 1
  %196 = load ptr, ptr %5, align 8
  %197 = getelementptr inbounds i8, ptr %196, i32 1
  store ptr %197, ptr %5, align 8
  store i8 %195, ptr %196, align 1
  br label %198

198:                                              ; preds = %194, %186
  br label %199

199:                                              ; preds = %198, %125
  br label %200

200:                                              ; preds = %199, %101
  ret i32 0
}

; Function Attrs: nounwind uwtable
define internal i32 @H5O__fill_new_shared_encode(ptr noundef %0, i1 noundef zeroext %1, i64 noundef %2, ptr noundef %3, ptr noundef %4) #0 {
  %6 = alloca ptr, align 8
  %7 = alloca i8, align 1
  %8 = alloca i64, align 8
  %9 = alloca ptr, align 8
  %10 = alloca ptr, align 8
  %11 = alloca ptr, align 8
  %12 = alloca i32, align 4
  %13 = alloca i8, align 1
  store ptr %0, ptr %6, align 8
  %14 = zext i1 %1 to i8
  store i8 %14, ptr %7, align 1
  store i64 %2, ptr %8, align 8
  store ptr %3, ptr %9, align 8
  store ptr %4, ptr %10, align 8
  %15 = load ptr, ptr %10, align 8
  store ptr %15, ptr %11, align 8
  store i32 0, ptr %12, align 4
  store i8 0, ptr %13, align 1
  %16 = load ptr, ptr %11, align 8
  %17 = getelementptr inbounds %struct.H5O_shared_t, ptr %16, i32 0, i32 0
  %18 = load i32, ptr %17, align 8
  %19 = icmp eq i32 %18, 1
  br i1 %19, label %25, label %20

20:                                               ; preds = %5
  %21 = load ptr, ptr %11, align 8
  %22 = getelementptr inbounds %struct.H5O_shared_t, ptr %21, i32 0, i32 0
  %23 = load i32, ptr %22, align 8
  %24 = icmp eq i32 %23, 2
  br i1 %24, label %25, label %26

25:                                               ; preds = %20, %5
  br i1 true, label %27, label %52

26:                                               ; preds = %20
  br i1 false, label %27, label %52

27:                                               ; preds = %26, %25
  %28 = load i8, ptr %7, align 1
  %29 = trunc i8 %28 to i1
  br i1 %29, label %52, label %30

30:                                               ; preds = %27
  %31 = load ptr, ptr %6, align 8
  %32 = load ptr, ptr %9, align 8
  %33 = load ptr, ptr %11, align 8
  %34 = call i32 @H5O__shared_encode(ptr noundef %31, ptr noundef %32, ptr noundef %33)
  %35 = icmp slt i32 %34, 0
  br i1 %35, label %36, label %51

36:                                               ; preds = %30
  br label %37

37:                                               ; preds = %36
  br label %38

38:                                               ; preds = %37
  br label %39

39:                                               ; preds = %38
  %40 = load i64, ptr @H5E_OHDR_g, align 8
  %41 = load i64, ptr @H5E_CANTENCODE_g, align 8
  %42 = call i32 (ptr, ptr, i32, i64, i64, ptr, ...) @H5E_printf_stack(ptr noundef @.str.10, ptr noundef @__func__.H5O__fill_new_shared_encode, i32 noundef 119, i64 noundef %40, i64 noundef %41, ptr noundef @.str.19)
  br label %43

43:                                               ; preds = %39
  store i8 1, ptr %13, align 1
  %44 = load i8, ptr %13, align 1
  %45 = trunc i8 %44 to i1
  %46 = zext i1 %45 to i8
  store i8 %46, ptr %13, align 1
  br label %47

47:                                               ; preds = %43
  br label %48

48:                                               ; preds = %47
  store i32 -1, ptr %12, align 4
  br label %75

49:                                               ; No predecessors!
  br label %50

50:                                               ; preds = %49
  br label %51

51:                                               ; preds = %50, %30
  br label %74

52:                                               ; preds = %27, %26, %25
  %53 = load ptr, ptr %6, align 8
  %54 = load ptr, ptr %9, align 8
  %55 = load ptr, ptr %10, align 8
  %56 = call i32 @H5O__fill_new_encode(ptr noundef %53, ptr noundef %54, ptr noundef %55)
  %57 = icmp slt i32 %56, 0
  br i1 %57, label %58, label %73

58:                                               ; preds = %52
  br label %59

59:                                               ; preds = %58
  br label %60

60:                                               ; preds = %59
  br label %61

61:                                               ; preds = %60
  %62 = load i64, ptr @H5E_OHDR_g, align 8
  %63 = load i64, ptr @H5E_CANTENCODE_g, align 8
  %64 = call i32 (ptr, ptr, i32, i64, i64, ptr, ...) @H5E_printf_stack(ptr noundef @.str.10, ptr noundef @__func__.H5O__fill_new_shared_encode, i32 noundef 124, i64 noundef %62, i64 noundef %63, ptr noundef @.str.20)
  br label %65

65:                                               ; preds = %61
  store i8 1, ptr %13, align 1
  %66 = load i8, ptr %13, align 1
  %67 = trunc i8 %66 to i1
  %68 = zext i1 %67 to i8
  store i8 %68, ptr %13, align 1
  br label %69

69:                                               ; preds = %65
  br label %70

70:                                               ; preds = %69
  store i32 -1, ptr %12, align 4
  br label %75

71:                                               ; No predecessors!
  br label %72

72:                                               ; preds = %71
  br label %73

73:                                               ; preds = %72, %52
  br label %74

74:                                               ; preds = %73, %51
  br label %75

75:                                               ; preds = %74, %70, %48
  %76 = load i32, ptr %12, align 4
  ret i32 %76
}