; Function Attrs: nounwind uwtable
define internal range(i32 -1, 1) i32 @H5O__fill_new_shared_encode(ptr noundef %0, i1 noundef zeroext %1, i64 %2, ptr noundef %3, ptr noundef %4) #0 {
  %6 = load i32, ptr %4, align 8
  %7 = add i32 %6, -3
  %switch = icmp ult i32 %7, -2
  %brmerge = or i1 %switch, %1
  br i1 %brmerge, label %15, label %8

8:                                                ; preds = %5
  %9 = tail call i32 @H5O__shared_encode(ptr noundef %0, ptr noundef %3, ptr noundef nonnull %4) #8
  %10 = icmp slt i32 %9, 0
  br i1 %10, label %11, label %H5O__fill_new_encode.exit

11:                                               ; preds = %8
  %12 = load i64, ptr @H5E_OHDR_g, align 8
  %13 = load i64, ptr @H5E_CANTENCODE_g, align 8
  %14 = tail call i32 (ptr, ptr, i32, i64, i64, ptr, ...) @H5E_printf_stack(ptr noundef nonnull @.str.10, ptr noundef nonnull @__func__.H5O__fill_new_shared_encode, i32 noundef 119, i64 noundef %12, i64 noundef %13, ptr noundef nonnull @.str.19) #8
  br label %H5O__fill_new_encode.exit

15:                                               ; preds = %5
  %16 = getelementptr inbounds i8, ptr %4, i64 40
  %17 = load i32, ptr %16, align 8
  %18 = trunc i32 %17 to i8
  %19 = getelementptr inbounds i8, ptr %3, i64 1
  store i8 %18, ptr %3, align 1
  %20 = load i32, ptr %16, align 8
  %21 = icmp ult i32 %20, 3
  %22 = getelementptr inbounds i8, ptr %4, i64 72
  %23 = load i32, ptr %22, align 8
  br i1 %21, label %24, label %60

24:                                               ; preds = %15
  %25 = trunc i32 %23 to i8
  %26 = getelementptr inbounds i8, ptr %3, i64 2
  store i8 %25, ptr %19, align 1
  %27 = getelementptr inbounds i8, ptr %4, i64 76
  %28 = load i32, ptr %27, align 4
  %29 = trunc i32 %28 to i8
  %30 = getelementptr inbounds i8, ptr %3, i64 3
  store i8 %29, ptr %26, align 1
  %31 = getelementptr inbounds i8, ptr %4, i64 80
  %32 = load i8, ptr %31, align 8
  %33 = and i8 %32, 1
  store i8 %33, ptr %30, align 1
  %34 = load i8, ptr %31, align 8
  %35 = trunc i8 %34 to i1
  br i1 %35, label %36, label %H5O__fill_new_encode.exit

36:                                               ; preds = %24
  %37 = getelementptr inbounds i8, ptr %3, i64 4
  %38 = getelementptr inbounds i8, ptr %4, i64 56
  %39 = load i64, ptr %38, align 8
  %40 = trunc i64 %39 to i8
  store i8 %40, ptr %37, align 1
  %41 = getelementptr inbounds i8, ptr %3, i64 5
  %42 = load i64, ptr %38, align 8
  %43 = lshr i64 %42, 8
  %44 = trunc i64 %43 to i8
  store i8 %44, ptr %41, align 1
  %45 = getelementptr inbounds i8, ptr %3, i64 6
  %46 = load i64, ptr %38, align 8
  %47 = lshr i64 %46, 16
  %48 = trunc i64 %47 to i8
  store i8 %48, ptr %45, align 1
  %49 = getelementptr inbounds i8, ptr %3, i64 7
  %50 = load i64, ptr %38, align 8
  %51 = lshr i64 %50, 24
  %52 = trunc i64 %51 to i8
  store i8 %52, ptr %49, align 1
  %53 = getelementptr inbounds i8, ptr %3, i64 8
  %54 = load i64, ptr %38, align 8
  %55 = icmp sgt i64 %54, 0
  br i1 %55, label %56, label %H5O__fill_new_encode.exit

56:                                               ; preds = %36
  %57 = getelementptr inbounds i8, ptr %4, i64 64
  %58 = load ptr, ptr %57, align 8
  %.not58.i = icmp eq ptr %58, null
  br i1 %.not58.i, label %H5O__fill_new_encode.exit, label %59

59:                                               ; preds = %56
  tail call void @llvm.memcpy.p0.p0.i64(ptr nonnull writeonly align 1 %53, ptr nonnull align 1 %58, i64 %54, i1 false)
  br label %H5O__fill_new_encode.exit

60:                                               ; preds = %15
  %61 = and i32 %23, 3
  %62 = getelementptr inbounds i8, ptr %4, i64 76
  %63 = load i32, ptr %62, align 4
  %64 = shl i32 %63, 2
  %65 = and i32 %64, 12
  %66 = or disjoint i32 %65, %61
  %67 = trunc nuw nsw i32 %66 to i8
  %68 = getelementptr inbounds i8, ptr %4, i64 56
  %69 = load i64, ptr %68, align 8
  %70 = icmp slt i64 %69, 0
  br i1 %70, label %71, label %73

71:                                               ; preds = %60
  %72 = or disjoint i8 %67, 16
  store i8 %72, ptr %19, align 1
  br label %H5O__fill_new_encode.exit

73:                                               ; preds = %60
  %.not.i = icmp eq i64 %69, 0
  br i1 %.not.i, label %95, label %74

74:                                               ; preds = %73
  %75 = or disjoint i8 %67, 32
  %76 = getelementptr inbounds i8, ptr %3, i64 2
  store i8 %75, ptr %19, align 1
  %77 = load i64, ptr %68, align 8
  %78 = trunc i64 %77 to i8
  store i8 %78, ptr %76, align 1
  %79 = getelementptr inbounds i8, ptr %3, i64 3
  %80 = load i64, ptr %68, align 8
  %81 = lshr i64 %80, 8
  %82 = trunc i64 %81 to i8
  store i8 %82, ptr %79, align 1
  %83 = getelementptr inbounds i8, ptr %3, i64 4
  %84 = load i64, ptr %68, align 8
  %85 = lshr i64 %84, 16
  %86 = trunc i64 %85 to i8
  store i8 %86, ptr %83, align 1
  %87 = getelementptr inbounds i8, ptr %3, i64 5
  %88 = load i64, ptr %68, align 8
  %89 = lshr i64 %88, 24
  %90 = trunc i64 %89 to i8
  store i8 %90, ptr %87, align 1
  %91 = getelementptr inbounds i8, ptr %3, i64 6
  %92 = getelementptr inbounds i8, ptr %4, i64 64
  %93 = load ptr, ptr %92, align 8
  %94 = load i64, ptr %68, align 8
  tail call void @llvm.memcpy.p0.p0.i64(ptr nonnull writeonly align 1 %91, ptr align 1 %93, i64 %94, i1 false)
  br label %H5O__fill_new_encode.exit

95:                                               ; preds = %73
  store i8 %67, ptr %19, align 1
  br label %H5O__fill_new_encode.exit

H5O__fill_new_encode.exit:                        ; preds = %95, %74, %71, %59, %56, %36, %24, %8, %11
  %.0 = phi i32 [ -1, %11 ], [ 0, %8 ], [ 0, %24 ], [ 0, %36 ], [ 0, %56 ], [ 0, %59 ], [ 0, %71 ], [ 0, %74 ], [ 0, %95 ]
  ret i32 %.0
}